(dp0
I0
I6
sI1
I0
sI2
I0
sI3
I0
sI4
I0
sI5
I0
sI6
I0
sI7
I4
sI8
I7
sI9
I0
sI10
I0
sI11
I0
sI12
I0
sI13
I0
sI14
I0
sI15
I1
sI16
I0
sI17
I49
sI18
I0
sI19
I3
sI20
I0
sI21
I0
sI22
I0
sI23
I1
sI24
I0
sI25
I0
sI26
I5
sI27
I2
sI28
I2
sI29
I1
sI30
I0
sI31
I2
sI32
I2
sI33
I0
sI34
I1
sI35
I0
sI36
I0
sI37
I0
sI38
I0
sI39
I0
sI40
I0
sI41
I0
sI42
I0
sI43
I2
sI44
I2
sI45
I0
sI46
I0
sI47
I0
sI48
I0
sI49
I0
sI50
I0
sI51
I44
sI52
I0
sI53
I0
sI54
I0
sI55
I0
sI56
I0
sI57
I1
sI58
I1
sI59
I0
sI60
I0
sI61
I2
sI62
I4
sI63
I4
sI64
I1
sI65
I4
sI66
I0
sI67
I0
sI68
I0
sI69
I0
sI70
I0
sI71
I10
sI72
I3
sI73
I0
sI74
I0
sI75
I0
sI76
I0
sI77
I0
sI78
I0
sI79
I0
sI80
I0
sI81
I0
sI82
I0
sI83
I0
sI84
I7
sI85
I1
sI86
I0
sI87
I0
sI88
I0
sI89
I0
sI90
I0
sI91
I13
sI92
I0
sI93
I0
sI94
I13
sI95
I0
sI96
I0
sI97
I6
sI98
I6
sI99
I4
sI100
I0
sI101
I0
sI102
I2
sI103
I2
sI104
I362
sI105
I5
sI106
I0
sI107
I0
sI108
I1
sI109
I101
sI110
I5
sI111
I0
sI112
I16
sI113
I30
sI114
I2
sI115
I0
sI116
I0
sI117
I0
sI118
I0
sI119
I22
sI120
I0
sI121
I0
sI122
I10
sI123
I3
sI124
I4
sI125
I0
sI126
I0
sI127
I0
sI128
I0
sI129
I0
sI130
I0
sI131
I1
sI132
I0
sI133
I0
sI134
I0
sI135
I0
sI136
I3
sI137
I0
sI138
I0
sI139
I0
sI140
I1
sI141
I1
sI142
I1
sI143
I5
sI144
I0
sI145
I0
sI146
I2
sI147
I0
sI148
I0
sI149
I0
sI150
I1
sI151
I0
sI152
I0
sI153
I0
sI154
I0
sI155
I2
sI156
I1
sI157
I1
sI158
I1
sI159
I0
sI160
I11
sI161
I0
sI162
I0
sI163
I0
sI164
I0
sI165
I1
sI166
I1
sI167
I2
sI168
I0
sI169
I1
sI170
I20
sI171
I4
sI172
I0
sI173
I0
sI174
I0
sI175
I1
sI176
I0
sI177
I0
sI178
I0
sI179
I0
sI180
I2
sI181
I2
sI182
I0
sI183
I0
sI184
I0
sI185
I15
sI186
I0
sI187
I0
sI188
I0
sI189
I0
sI190
I1
sI191
I0
sI192
I0
sI193
I1
sI194
I1
sI195
I0
sI196
I4
sI197
I1
sI198
I0
sI199
I0
sI200
I0
sI201
I0
sI202
I0
sI203
I0
sI204
I1
sI205
I0
sI206
I0
sI207
I0
sI208
I0
sI209
I0
sI210
I0
sI211
I1
sI212
I1
sI213
I0
sI214
I2
sI215
I0
sI216
I4
sI217
I3
sI218
I14
sI219
I0
sI220
I0
sI221
I0
sI222
I0
sI223
I0
sI224
I0
sI225
I0
sI226
I0
sI227
I0
sI228
I0
sI229
I7
sI230
I0
sI231
I0
sI232
I0
sI233
I0
sI234
I0
sI235
I0
sI236
I0
sI237
I0
sI238
I0
sI239
I0
sI240
I1
sI241
I0
sI242
I0
sI243
I0
sI244
I0
sI245
I0
sI246
I0
sI247
I0
sI248
I0
sI249
I2
sI250
I0
sI251
I0
sI252
I0
sI253
I0
sI254
I0
sI255
I1
sI256
I0
sI257
I0
sI258
I0
sI259
I0
sI260
I0
sI261
I0
sI262
I1
sI263
I4
sI264
I2
sI265
I0
sI266
I0
sI267
I2
sI268
I0
sI269
I0
sI270
I0
sI271
I1
sI272
I1
sI273
I0
sI274
I0
sI275
I0
sI276
I0
sI277
I0
sI278
I2
sI279
I84
sI280
I0
sI281
I0
sI282
I0
sI283
I0
sI284
I0
sI285
I1
sI286
I1
sI287
I1
sI288
I0
sI289
I2
sI290
I0
sI291
I53
sI292
I8
sI293
I2
sI294
I3
sI295
I3
sI296
I8
sI297
I21
sI298
I8
sI299
I8
sI300
I8
sI301
I0
sI302
I1
sI303
I0
sI304
I0
sI305
I0
sI306
I1
sI307
I0
sI308
I2
sI309
I0
sI310
I2
sI311
I2
sI312
I2
sI313
I2
sI314
I0
sI315
I0
sI316
I0
sI317
I1
sI318
I2
sI319
I0
sI320
I3
sI321
I0
sI322
I0
sI323
I5
sI324
I0
sI325
I0
sI326
I0
sI327
I6
sI328
I1
sI329
I0
sI330
I1
sI331
I0
sI332
I4
sI333
I2
sI334
I2
sI335
I8
sI336
I3
sI337
I0
sI338
I1
sI339
I1
sI340
I1
sI341
I0
sI342
I0
sI343
I0
sI344
I3
sI345
I1
sI346
I3
sI347
I3
sI348
I15
sI349
I19
sI350
I4
sI351
I0
sI352
I0
sI353
I1
sI354
I6
sI355
I73
sI356
I0
sI357
I0
sI358
I0
sI359
I0
sI360
I3
sI361
I1
sI362
I1
sI363
I0
sI364
I0
sI365
I0
sI366
I0
sI367
I0
sI368
I0
sI369
I1
sI370
I2
sI371
I0
sI372
I0
sI373
I8
sI374
I6
sI375
I3
sI376
I1
sI377
I7
sI378
I1
sI379
I1
sI380
I3
sI381
I2
sI382
I0
sI383
I0
sI384
I1
sI385
I16
sI386
I31
sI387
I0
sI388
I0
sI389
I0
sI390
I2
sI391
I0
sI392
I0
sI393
I0
sI394
I0
sI395
I0
sI396
I0
sI397
I0
sI398
I3
sI399
I0
sI400
I9
sI401
I0
sI402
I1
sI403
I10
sI404
I1
sI405
I1
sI406
I0
sI407
I0
sI408
I0
sI409
I0
sI410
I24
sI411
I0
sI412
I0
sI413
I0
sI414
I0
sI415
I0
sI416
I0
sI417
I9
sI418
I7
sI419
I0
sI420
I0
sI421
I0
sI422
I14
sI423
I0
sI424
I3
sI425
I0
sI426
I2
sI427
I0
sI428
I0
sI429
I34
sI430
I5
sI431
I4
sI432
I5
sI433
I0
sI434
I20
sI435
I20
sI436
I9
sI437
I0
sI438
I1
sI439
I9
sI440
I5
sI441
I18
sI442
I22
sI443
I0
sI444
I3
sI445
I3
sI446
I10
sI447
I13
sI448
I11
sI449
I23
sI450
I3
sI451
I3
sI452
I27
sI453
I0
sI454
I0
sI455
I20
sI456
I2
sI457
I0
sI458
I1
sI459
I0
sI460
I0
sI461
I0
sI462
I0
sI463
I1
sI464
I0
sI465
I0
sI466
I3
sI467
I1
sI468
I0
sI469
I2
sI470
I0
sI471
I7
sI472
I2
sI473
I2
sI474
I3
sI475
I1
sI476
I2
sI477
I1
sI478
I1
sI479
I1
sI480
I5
sI481
I7
sI482
I7
sI483
I5
sI484
I7
sI485
I7
sI486
I1
sI487
I0
sI488
I2
sI489
I0
sI490
I4
sI491
I4
sI492
I0
sI493
I1
sI494
I0
sI495
I0
sI496
I0
sI497
I0
sI498
I1
sI499
I1
sI500
I0
sI501
I0
sI502
I0
sI503
I4
sI504
I30
sI505
I2
sI506
I2
sI507
I1
sI508
I1
sI509
I1
sI510
I2
sI511
I1
sI512
I1
sI513
I3
sI514
I3
sI515
I10
sI516
I0
sI517
I3
sI518
I6
sI519
I1
sI520
I3
sI521
I3
sI522
I0
sI523
I4
sI524
I4
sI525
I0
sI526
I0
sI527
I4
sI528
I4
sI529
I4
sI530
I2
sI531
I4
sI532
I7
sI533
I1
sI534
I1
sI535
I1
sI536
I16
sI537
I1
sI538
I1
sI539
I1
sI540
I1
sI541
I1
sI542
I1
sI543
I0
sI544
I0
sI545
I4
sI546
I4
sI547
I0
sI548
I0
sI549
I1
sI550
I0
sI551
I0
sI552
I0
sI553
I1
sI554
I1
sI555
I0
sI556
I0
sI557
I0
sI558
I0
sI559
I0
sI560
I3
sI561
I1
sI562
I1
sI563
I1
sI564
I0
sI565
I0
sI566
I0
sI567
I0
sI568
I0
sI569
I0
sI570
I0
sI571
I0
sI572
I0
sI573
I36
sI574
I0
sI575
I0
sI576
I0
sI577
I0
sI578
I0
sI579
I0
sI580
I0
sI581
I0
sI582
I0
sI583
I2
sI584
I0
sI585
I0
sI586
I0
sI587
I0
sI588
I0
sI589
I1
sI590
I2
sI591
I0
sI592
I0
sI593
I1
sI594
I1
sI595
I0
sI596
I0
sI597
I1
sI598
I1
sI599
I0
sI600
I1
sI601
I0
sI602
I0
sI603
I0
sI604
I0
sI605
I0
sI606
I1
sI607
I0
sI608
I0
sI609
I0
sI610
I1
sI611
I1
sI612
I0
sI613
I0
sI614
I1
sI615
I2
sI616
I2
sI617
I0
sI618
I0
sI619
I1
sI620
I0
sI621
I0
sI622
I0
sI623
I0
sI624
I0
sI625
I3
sI626
I0
sI627
I0
sI628
I0
sI629
I0
sI630
I0
sI631
I0
sI632
I4
sI633
I2
sI634
I0
sI635
I0
sI636
I0
sI637
I0
sI638
I0
sI639
I0
sI640
I0
sI641
I0
sI642
I0
sI643
I0
sI644
I0
sI645
I0
sI646
I0
sI647
I0
sI648
I1
sI649
I0
sI650
I0
sI651
I0
sI652
I1
sI653
I1
sI654
I0
sI655
I0
sI656
I1
sI657
I1
sI658
I5
sI659
I5
sI660
I0
sI661
I0
sI662
I0
sI663
I0
sI664
I0
sI665
I1
sI666
I1
sI667
I0
sI668
I0
sI669
I0
sI670
I0
sI671
I2
sI672
I1
sI673
I0
sI674
I0
sI675
I0
sI676
I1
sI677
I0
sI678
I0
sI679
I0
sI680
I0
sI681
I0
sI682
I1
sI683
I1
sI684
I0
sI685
I1
sI686
I1
sI687
I1
sI688
I2
sI689
I0
sI690
I0
sI691
I0
sI692
I0
sI693
I0
sI694
I0
sI695
I1
sI696
I0
sI697
I1
sI698
I0
sI699
I0
sI700
I0
sI701
I0
sI702
I0
sI703
I50
sI704
I0
sI705
I0
sI706
I0
sI707
I0
sI708
I0
sI709
I0
sI710
I0
sI711
I0
sI712
I0
sI713
I0
sI714
I0
sI715
I0
sI716
I0
sI717
I0
sI718
I1
sI719
I0
sI720
I0
sI721
I0
sI722
I0
sI723
I0
sI724
I0
sI725
I1
sI726
I0
sI727
I0
sI728
I0
sI729
I0
sI730
I0
sI731
I2
sI732
I2
sI733
I0
sI734
I0
sI735
I0
sI736
I0
sI737
I0
sI738
I0
sI739
I0
sI740
I1
sI741
I0
sI742
I0
sI743
I0
sI744
I0
sI745
I0
sI746
I0
sI747
I0
sI748
I2
sI749
I9
sI750
I1
sI751
I0
sI752
I9
sI753
I2
sI754
I2
sI755
I5
sI756
I8
sI757
I4
sI758
I0
sI759
I0
sI760
I0
sI761
I1
sI762
I1
sI763
I0
sI764
I0
sI765
I7
sI766
I0
sI767
I0
sI768
I0
sI769
I0
sI770
I0
sI771
I4
sI772
I0
sI773
I7
sI774
I0
sI775
I0
sI776
I14
sI777
I25
sI778
I0
sI779
I0
sI780
I8
sI781
I7
sI782
I8
sI783
I1
sI784
I10
sI785
I8
sI786
I0
sI787
I1
sI788
I1
sI789
I1
sI790
I2
sI791
I4
sI792
I0
sI793
I0
sI794
I0
sI795
I0
sI796
I0
sI797
I1
sI798
I4
sI799
I1
sI800
I1
sI801
I6
sI802
I1
sI803
I1
sI804
I0
sI805
I1
sI806
I1
sI807
I0
sI808
I0
sI809
I3
sI810
I0
sI811
I0
sI812
I1
sI813
I0
sI814
I0
sI815
I2
sI816
I13
sI817
I0
sI818
I0
sI819
I3
sI820
I0
sI821
I3
sI822
I0
sI823
I0
sI824
I0
sI825
I0
sI826
I2
sI827
I2
sI828
I2
sI829
I6
sI830
I8
sI831
I0
sI832
I1
sI833
I13
sI834
I6
sI835
I11
sI836
I11
sI837
I11
sI838
I0
sI839
I0
sI840
I1
sI841
I1
sI842
I1
sI843
I0
sI844
I6
sI845
I0
sI846
I0
sI847
I0
sI848
I0
sI849
I0
sI850
I0
sI851
I0
sI852
I6
sI853
I5
sI854
I3
sI855
I8
sI856
I0
sI857
I0
sI858
I0
sI859
I0
sI860
I3
sI861
I0
sI862
I2
sI863
I0
sI864
I0
sI865
I0
sI866
I0
sI867
I0
sI868
I0
sI869
I0
sI870
I2
sI871
I0
sI872
I0
sI873
I0
sI874
I0
sI875
I0
sI876
I0
sI877
I0
sI878
I0
sI879
I0
sI880
I1
sI881
I8
sI882
I0
sI883
I0
sI884
I0
sI885
I14
sI886
I2
sI887
I2
sI888
I29
sI889
I19
sI890
I25
sI891
I1
sI892
I0
sI893
I4
sI894
I1
sI895
I0
sI896
I0
sI897
I1
sI898
I1
sI899
I0
sI900
I0
sI901
I0
sI902
I0
sI903
I0
sI904
I0
sI905
I0
sI906
I0
sI907
I0
sI908
I0
sI909
I2
sI910
I20
sI911
I0
sI912
I0
sI913
I0
sI914
I0
sI915
I2
sI916
I2
sI917
I0
sI918
I0
sI919
I0
sI920
I0
sI921
I0
sI922
I0
sI923
I0
sI924
I0
sI925
I0
sI926
I0
sI927
I0
sI928
I3
sI929
I0
sI930
I0
sI931
I0
sI932
I0
sI933
I0
sI934
I6
sI935
I106
sI936
I24
sI937
I0
sI938
I2
sI939
I2
sI940
I0
sI941
I0
sI942
I2
sI943
I2
sI944
I0
sI945
I1
sI946
I1
sI947
I3
sI948
I3
sI949
I0
sI950
I0
sI951
I0
sI952
I0
sI953
I0
sI954
I0
sI955
I0
sI956
I0
sI957
I0
sI958
I0
sI959
I0
sI960
I0
sI961
I0
sI962
I0
sI963
I0
sI964
I0
sI965
I1
sI966
I0
sI967
I3
sI968
I3
sI969
I2
sI970
I0
sI971
I0
sI972
I1
sI973
I0
sI974
I0
sI975
I0
sI976
I0
sI977
I0
sI978
I0
sI979
I0
sI980
I0
sI981
I1
sI982
I1
sI983
I0
sI984
I0
sI985
I0
sI986
I0
sI987
I0
sI988
I0
sI989
I267
sI990
I0
sI991
I0
sI992
I1
sI993
I9
sI994
I9
sI995
I0
sI996
I0
sI997
I0
sI998
I0
sI999
I0
sI1000
I1
sI1001
I1
sI1002
I0
sI1003
I0
sI1004
I0
sI1005
I12
sI1006
I12
sI1007
I12
sI1008
I0
sI1009
I0
sI1010
I0
sI1011
I1
sI1012
I1
sI1013
I0
sI1014
I0
sI1015
I0
sI1016
I0
sI1017
I0
sI1018
I0
sI1019
I0
sI1020
I0
sI1021
I3
sI1022
I0
sI1023
I0
sI1024
I0
sI1025
I0
sI1026
I0
sI1027
I0
sI1028
I0
sI1029
I0
sI1030
I0
sI1031
I0
sI1032
I1
sI1033
I1
sI1034
I0
sI1035
I0
sI1036
I0
sI1037
I0
sI1038
I2
sI1039
I2
sI1040
I3
sI1041
I0
sI1042
I0
sI1043
I0
sI1044
I0
sI1045
I1
sI1046
I1
sI1047
I1
sI1048
I1
sI1049
I1
sI1050
I84
sI1051
I0
sI1052
I0
sI1053
I0
sI1054
I0
sI1055
I0
sI1056
I0
sI1057
I0
sI1058
I0
sI1059
I1
sI1060
I1
sI1061
I0
sI1062
I0
sI1063
I128
sI1064
I2
sI1065
I2
sI1066
I2
sI1067
I3
sI1068
I3
sI1069
I0
sI1070
I0
sI1071
I2
sI1072
I4
sI1073
I4
sI1074
I4
sI1075
I0
sI1076
I3
sI1077
I3
sI1078
I0
sI1079
I1
sI1080
I3
sI1081
I3
sI1082
I6
sI1083
I2
sI1084
I2
sI1085
I0
sI1086
I2
sI1087
I0
sI1088
I0
sI1089
I3
sI1090
I0
sI1091
I4
sI1092
I212
sI1093
I33
sI1094
I5
sI1095
I5
sI1096
I2
sI1097
I15
sI1098
I15
sI1099
I2
sI1100
I2
sI1101
I2
sI1102
I14
sI1103
I0
sI1104
I1
sI1105
I3
sI1106
I32
sI1107
I32
sI1108
I4
sI1109
I2
sI1110
I2
sI1111
I2
sI1112
I0
sI1113
I0
sI1114
I7
sI1115
I2
sI1116
I2
sI1117
I2
sI1118
I3
sI1119
I0
sI1120
I2
sI1121
I2
sI1122
I0
sI1123
I0
sI1124
I2
sI1125
I2
sI1126
I2
sI1127
I2
sI1128
I0
sI1129
I0
sI1130
I0
sI1131
I0
sI1132
I2
sI1133
I2
sI1134
I0
sI1135
I1
sI1136
I2
sI1137
I0
sI1138
I15
sI1139
I0
sI1140
I0
sI1141
I2
sI1142
I2
sI1143
I2
sI1144
I1
sI1145
I1
sI1146
I0
sI1147
I0
sI1148
I0
sI1149
I0
sI1150
I0
sI1151
I0
sI1152
I0
sI1153
I1
sI1154
I0
sI1155
I0
sI1156
I2
sI1157
I0
sI1158
I0
sI1159
I0
sI1160
I0
sI1161
I1
sI1162
I0
sI1163
I0
sI1164
I0
sI1165
I0
sI1166
I0
sI1167
I0
sI1168
I0
sI1169
I1
sI1170
I0
sI1171
I0
sI1172
I0
sI1173
I1
sI1174
I0
sI1175
I0
sI1176
I0
sI1177
I0
sI1178
I0
sI1179
I0
sI1180
I0
sI1181
I0
sI1182
I0
sI1183
I0
sI1184
I0
sI1185
I0
sI1186
I0
sI1187
I0
sI1188
I0
sI1189
I1
sI1190
I1
sI1191
I1
sI1192
I1
sI1193
I1
sI1194
I0
sI1195
I0
sI1196
I0
sI1197
I1
sI1198
I5
sI1199
I2
sI1200
I0
sI1201
I0
sI1202
I0
sI1203
I0
sI1204
I0
sI1205
I0
sI1206
I0
sI1207
I4
sI1208
I4
sI1209
I0
sI1210
I0
sI1211
I0
sI1212
I0
sI1213
I0
sI1214
I0
sI1215
I0
sI1216
I0
sI1217
I0
sI1218
I0
sI1219
I2
sI1220
I104
sI1221
I0
sI1222
I1
sI1223
I0
sI1224
I1
sI1225
I0
sI1226
I0
sI1227
I3
sI1228
I0
sI1229
I0
sI1230
I0
sI1231
I0
sI1232
I0
sI1233
I0
sI1234
I0
sI1235
I0
sI1236
I0
sI1237
I0
sI1238
I5
sI1239
I0
sI1240
I0
sI1241
I0
sI1242
I0
sI1243
I20
sI1244
I19
sI1245
I0
sI1246
I0
sI1247
I0
sI1248
I0
sI1249
I0
sI1250
I0
sI1251
I0
sI1252
I5
sI1253
I0
sI1254
I0
sI1255
I3
sI1256
I1
sI1257
I1
sI1258
I0
sI1259
I3
sI1260
I3
sI1261
I0
sI1262
I0
sI1263
I0
sI1264
I0
sI1265
I0
sI1266
I1
sI1267
I1
sI1268
I4
sI1269
I1
sI1270
I0
sI1271
I0
sI1272
I0
sI1273
I0
sI1274
I0
sI1275
I0
sI1276
I0
sI1277
I0
sI1278
I2
sI1279
I2
sI1280
I2
sI1281
I0
sI1282
I0
sI1283
I0
sI1284
I0
sI1285
I0
sI1286
I0
sI1287
I6
sI1288
I6
sI1289
I6
sI1290
I0
sI1291
I0
sI1292
I15
sI1293
I0
sI1294
I14
sI1295
I0
sI1296
I0
sI1297
I0
sI1298
I1
sI1299
I1
sI1300
I0
sI1301
I0
sI1302
I0
sI1303
I0
sI1304
I2
sI1305
I2
sI1306
I2
sI1307
I0
sI1308
I0
sI1309
I0
sI1310
I1
sI1311
I0
sI1312
I0
sI1313
I1
sI1314
I70
sI1315
I0
sI1316
I0
sI1317
I0
sI1318
I1
sI1319
I0
sI1320
I0
sI1321
I0
sI1322
I0
sI1323
I0
sI1324
I0
sI1325
I0
sI1326
I0
sI1327
I0
sI1328
I0
sI1329
I0
sI1330
I0
sI1331
I0
sI1332
I0
sI1333
I0
sI1334
I0
sI1335
I0
sI1336
I4
sI1337
I4
sI1338
I0
sI1339
I1
sI1340
I1
sI1341
I0
sI1342
I0
sI1343
I0
sI1344
I0
sI1345
I0
sI1346
I0
sI1347
I0
sI1348
I0
sI1349
I0
sI1350
I0
sI1351
I4
sI1352
I0
sI1353
I0
sI1354
I0
sI1355
I0
sI1356
I0
sI1357
I0
sI1358
I1
sI1359
I1
sI1360
I0
sI1361
I0
sI1362
I0
sI1363
I1
sI1364
I0
sI1365
I3
sI1366
I0
sI1367
I0
sI1368
I2
sI1369
I1
sI1370
I1
sI1371
I0
sI1372
I0
sI1373
I11
sI1374
I11
sI1375
I7
sI1376
I21
sI1377
I3
sI1378
I0
sI1379
I1
sI1380
I0
sI1381
I3
sI1382
I2
sI1383
I92
sI1384
I0
sI1385
I1
sI1386
I4
sI1387
I0
sI1388
I0
sI1389
I3
sI1390
I0
sI1391
I0
sI1392
I0
sI1393
I0
sI1394
I0
sI1395
I0
sI1396
I0
sI1397
I0
sI1398
I0
sI1399
I0
sI1400
I1
sI1401
I1
sI1402
I0
sI1403
I1
sI1404
I5
sI1405
I5
sI1406
I1
sI1407
I5
sI1408
I2
sI1409
I0
sI1410
I0
sI1411
I0
sI1412
I2
sI1413
I1
sI1414
I2
sI1415
I0
sI1416
I2
sI1417
I1
sI1418
I0
sI1419
I2
sI1420
I7
sI1421
I0
sI1422
I0
sI1423
I3
sI1424
I2
sI1425
I2
sI1426
I2
sI1427
I3
sI1428
I3
sI1429
I1
sI1430
I13
sI1431
I1
sI1432
I1
sI1433
I0
sI1434
I0
sI1435
I1
sI1436
I1
sI1437
I9
sI1438
I9
sI1439
I1
sI1440
I2
sI1441
I0
sI1442
I0
sI1443
I0
sI1444
I0
sI1445
I5
sI1446
I5
sI1447
I1
sI1448
I1
sI1449
I0
sI1450
I202
sI1451
I5
sI1452
I8
sI1453
I1
sI1454
I5
sI1455
I0
sI1456
I228
sI1457
I7
sI1458
I53
sI1459
I0
sI1460
I1
sI1461
I0
sI1462
I1
sI1463
I0
sI1464
I0
sI1465
I0
sI1466
I0
sI1467
I1
sI1468
I1
sI1469
I3
sI1470
I0
sI1471
I0
sI1472
I0
sI1473
I5
sI1474
I0
sI1475
I33
sI1476
I5
sI1477
I5
sI1478
I2
sI1479
I0
sI1480
I0
sI1481
I1
sI1482
I1
sI1483
I0
sI1484
I0
sI1485
I0
sI1486
I0
sI1487
I5
sI1488
I0
sI1489
I413
sI1490
I17
sI1491
I0
sI1492
I0
sI1493
I1
sI1494
I0
sI1495
I1
sI1496
I0
sI1497
I0
sI1498
I0
sI1499
I0
sI1500
I0
sI1501
I0
sI1502
I0
sI1503
I0
sI1504
I0
sI1505
I4
sI1506
I13
sI1507
I2
sI1508
I2
sI1509
I0
sI1510
I0
sI1511
I0
sI1512
I0
sI1513
I48
sI1514
I2
sI1515
I0
sI1516
I0
sI1517
I0
sI1518
I4
sI1519
I4
sI1520
I38
sI1521
I17
sI1522
I12
sI1523
I0
sI1524
I0
sI1525
I7
sI1526
I0
sI1527
I0
sI1528
I0
sI1529
I0
sI1530
I0
sI1531
I0
sI1532
I2
sI1533
I2
sI1534
I2
sI1535
I2
sI1536
I0
sI1537
I6
sI1538
I13
sI1539
I0
sI1540
I0
sI1541
I0
sI1542
I0
sI1543
I0
sI1544
I0
sI1545
I0
sI1546
I1
sI1547
I3
sI1548
I3
sI1549
I1
sI1550
I0
sI1551
I45
sI1552
I0
sI1553
I0
sI1554
I1
sI1555
I18
sI1556
I19
sI1557
I2
sI1558
I0
sI1559
I1
sI1560
I1
sI1561
I5
sI1562
I0
sI1563
I28
sI1564
I28
sI1565
I18
sI1566
I17
sI1567
I0
sI1568
I0
sI1569
I58
sI1570
I1
sI1571
I31
sI1572
I11
sI1573
I16
sI1574
I16
sI1575
I1
sI1576
I1
sI1577
I21
sI1578
I33
sI1579
I3
sI1580
I5
sI1581
I19
sI1582
I22
sI1583
I0
sI1584
I0
sI1585
I13
sI1586
I0
sI1587
I0
sI1588
I1
sI1589
I11
sI1590
I1
sI1591
I0
sI1592
I0
sI1593
I2
sI1594
I0
sI1595
I0
sI1596
I0
sI1597
I2
sI1598
I3
sI1599
I4
sI1600
I0
sI1601
I1
sI1602
I1
sI1603
I0
sI1604
I12
sI1605
I0
sI1606
I0
sI1607
I0
sI1608
I0
sI1609
I0
sI1610
I0
sI1611
I0
sI1612
I0
sI1613
I0
sI1614
I1
sI1615
I0
sI1616
I0
sI1617
I0
sI1618
I0
sI1619
I0
sI1620
I1
sI1621
I1
sI1622
I1
sI1623
I4
sI1624
I6
sI1625
I0
sI1626
I0
sI1627
I0
sI1628
I0
sI1629
I0
sI1630
I0
sI1631
I0
sI1632
I0
sI1633
I0
sI1634
I0
sI1635
I0
sI1636
I0
sI1637
I0
sI1638
I0
sI1639
I0
sI1640
I0
sI1641
I11
sI1642
I0
sI1643
I0
sI1644
I0
sI1645
I0
sI1646
I0
sI1647
I0
sI1648
I0
sI1649
I0
sI1650
I0
sI1651
I0
sI1652
I0
sI1653
I0
sI1654
I2
sI1655
I2
sI1656
I0
sI1657
I0
sI1658
I204
sI1659
I0
sI1660
I0
sI1661
I0
sI1662
I0
sI1663
I0
sI1664
I1
sI1665
I0
sI1666
I1
sI1667
I0
sI1668
I0
sI1669
I0
sI1670
I6
sI1671
I6
sI1672
I23
sI1673
I18
sI1674
I13
sI1675
I1
sI1676
I0
sI1677
I0
sI1678
I5
sI1679
I5
sI1680
I0
sI1681
I0
sI1682
I0
sI1683
I0
sI1684
I0
sI1685
I0
sI1686
I0
sI1687
I1
sI1688
I0
sI1689
I0
sI1690
I0
sI1691
I0
sI1692
I0
sI1693
I0
sI1694
I0
sI1695
I0
sI1696
I1
sI1697
I0
sI1698
I0
sI1699
I0
sI1700
I0
sI1701
I0
sI1702
I0
sI1703
I0
sI1704
I0
sI1705
I5
sI1706
I0
sI1707
I0
sI1708
I1
sI1709
I0
sI1710
I0
sI1711
I0
sI1712
I0
sI1713
I67
sI1714
I0
sI1715
I0
sI1716
I1
sI1717
I1
sI1718
I0
sI1719
I0
sI1720
I0
sI1721
I1
sI1722
I1
sI1723
I1
sI1724
I0
sI1725
I0
sI1726
I0
sI1727
I0
sI1728
I0
sI1729
I0
sI1730
I0
sI1731
I0
sI1732
I0
sI1733
I0
sI1734
I0
sI1735
I0
sI1736
I0
sI1737
I0
sI1738
I2
sI1739
I2
sI1740
I0
sI1741
I0
sI1742
I0
sI1743
I1
sI1744
I1
sI1745
I0
sI1746
I0
sI1747
I1
sI1748
I0
sI1749
I0
sI1750
I0
sI1751
I0
sI1752
I0
sI1753
I2
sI1754
I3
sI1755
I0
sI1756
I0
sI1757
I0
sI1758
I0
sI1759
I0
sI1760
I0
sI1761
I0
sI1762
I0
sI1763
I0
sI1764
I0
sI1765
I0
sI1766
I0
sI1767
I0
sI1768
I0
sI1769
I0
sI1770
I0
sI1771
I0
sI1772
I0
sI1773
I0
sI1774
I0
sI1775
I34
sI1776
I0
sI1777
I0
sI1778
I0
sI1779
I0
sI1780
I0
sI1781
I1
sI1782
I1
sI1783
I0
sI1784
I3
sI1785
I1
sI1786
I0
sI1787
I0
sI1788
I0
sI1789
I3
sI1790
I0
sI1791
I0
sI1792
I0
sI1793
I1
sI1794
I0
sI1795
I0
sI1796
I0
sI1797
I0
sI1798
I0
sI1799
I0
sI1800
I5
sI1801
I5
sI1802
I0
sI1803
I0
sI1804
I0
sI1805
I1
sI1806
I24
sI1807
I0
sI1808
I1
sI1809
I0
sI1810
I0
sI1811
I0
sI1812
I0
sI1813
I0
sI1814
I0
sI1815
I0
sI1816
I0
sI1817
I0
sI1818
I0
sI1819
I4
sI1820
I3
sI1821
I0
sI1822
I0
sI1823
I0
sI1824
I0
sI1825
I1
sI1826
I2
sI1827
I5
sI1828
I1
sI1829
I0
sI1830
I3
sI1831
I0
sI1832
I0
sI1833
I0
sI1834
I2
sI1835
I0
sI1836
I0
sI1837
I0
sI1838
I0
sI1839
I0
sI1840
I0
sI1841
I0
sI1842
I0
sI1843
I0
sI1844
I1
sI1845
I0
sI1846
I0
sI1847
I0
sI1848
I0
sI1849
I1
sI1850
I0
sI1851
I0
sI1852
I0
sI1853
I0
sI1854
I0
sI1855
I3
sI1856
I5
sI1857
I0
sI1858
I0
sI1859
I0
sI1860
I0
sI1861
I0
sI1862
I0
sI1863
I0
sI1864
I0
sI1865
I0
sI1866
I0
sI1867
I0
sI1868
I6
sI1869
I6
sI1870
I0
sI1871
I0
sI1872
I0
sI1873
I2
sI1874
I0
sI1875
I0
sI1876
I0
sI1877
I0
sI1878
I0
sI1879
I0
sI1880
I1
sI1881
I26
sI1882
I3
sI1883
I0
sI1884
I0
sI1885
I0
sI1886
I0
sI1887
I0
sI1888
I0
sI1889
I0
sI1890
I0
sI1891
I0
sI1892
I0
sI1893
I0
sI1894
I0
sI1895
I0
sI1896
I0
sI1897
I0
sI1898
I0
sI1899
I1
sI1900
I1
sI1901
I2
sI1902
I0
sI1903
I0
sI1904
I0
sI1905
I3
sI1906
I1
sI1907
I5
sI1908
I1
sI1909
I33
sI1910
I1
sI1911
I1
sI1912
I1
sI1913
I0
sI1914
I0
sI1915
I106
sI1916
I2
sI1917
I1
sI1918
I2
sI1919
I0
sI1920
I0
sI1921
I0
sI1922
I0
sI1923
I0
sI1924
I25
sI1925
I0
sI1926
I0
sI1927
I13
sI1928
I0
sI1929
I0
sI1930
I0
sI1931
I0
sI1932
I0
sI1933
I0
sI1934
I0
sI1935
I0
sI1936
I3
sI1937
I3
sI1938
I2
sI1939
I0
sI1940
I0
sI1941
I1
sI1942
I1
sI1943
I0
sI1944
I2
sI1945
I0
sI1946
I2
sI1947
I66
sI1948
I0
sI1949
I2
sI1950
I0
sI1951
I0
sI1952
I0
sI1953
I0
sI1954
I0
sI1955
I0
sI1956
I0
sI1957
I0
sI1958
I0
sI1959
I0
sI1960
I0
sI1961
I0
sI1962
I1
sI1963
I1
sI1964
I0
sI1965
I0
sI1966
I0
sI1967
I0
sI1968
I0
sI1969
I0
sI1970
I3
sI1971
I0
sI1972
I0
sI1973
I0
sI1974
I0
sI1975
I0
sI1976
I0
sI1977
I0
sI1978
I0
sI1979
I0
sI1980
I0
sI1981
I0
sI1982
I7
sI1983
I4
sI1984
I4
sI1985
I0
sI1986
I0
sI1987
I0
sI1988
I0
sI1989
I0
sI1990
I0
sI1991
I0
sI1992
I60
sI1993
I0
sI1994
I0
sI1995
I0
sI1996
I0
sI1997
I0
sI1998
I0
sI1999
I0
sI2000
I0
sI2001
I10
sI2002
I3
sI2003
I3
sI2004
I0
sI2005
I0
sI2006
I0
sI2007
I0
sI2008
I1
sI2009
I1
sI2010
I78
sI2011
I2
sI2012
I0
sI2013
I0
sI2014
I0
sI2015
I0
sI2016
I0
sI2017
I0
sI2018
I0
sI2019
I0
sI2020
I0
sI2021
I0
sI2022
I0
sI2023
I0
sI2024
I0
sI2025
I2
sI2026
I0
sI2027
I0
sI2028
I0
sI2029
I0
sI2030
I0
sI2031
I0
sI2032
I1
sI2033
I0
sI2034
I0
sI2035
I0
sI2036
I0
sI2037
I0
sI2038
I0
sI2039
I0
sI2040
I0
sI2041
I0
sI2042
I4
sI2043
I4
sI2044
I0
sI2045
I0
sI2046
I0
sI2047
I0
sI2048
I0
sI2049
I5
sI2050
I5
sI2051
I5
sI2052
I0
sI2053
I0
sI2054
I0
sI2055
I0
sI2056
I0
sI2057
I0
sI2058
I0
sI2059
I0
sI2060
I0
sI2061
I0
sI2062
I0
sI2063
I0
sI2064
I0
sI2065
I1
sI2066
I0
sI2067
I0
sI2068
I0
sI2069
I0
sI2070
I1
sI2071
I0
sI2072
I0
sI2073
I0
sI2074
I3
sI2075
I2
sI2076
I2
sI2077
I1
sI2078
I0
sI2079
I0
sI2080
I1
sI2081
I1
sI2082
I2
sI2083
I2
sI2084
I1
sI2085
I1
sI2086
I1
sI2087
I1
sI2088
I107
sI2089
I2
sI2090
I2
sI2091
I0
sI2092
I3
sI2093
I3
sI2094
I3
sI2095
I0
sI2096
I4
sI2097
I0
sI2098
I0
sI2099
I0
sI2100
I0
sI2101
I1
sI2102
I0
sI2103
I1
sI2104
I15
sI2105
I1
sI2106
I1
sI2107
I0
sI2108
I0
sI2109
I10
sI2110
I1
sI2111
I1
sI2112
I1
sI2113
I0
sI2114
I2
sI2115
I2
sI2116
I0
sI2117
I0
sI2118
I2
sI2119
I0
sI2120
I0
sI2121
I0
sI2122
I0
sI2123
I0
sI2124
I0
sI2125
I0
sI2126
I5
sI2127
I1
sI2128
I1
sI2129
I1
sI2130
I0
sI2131
I0
sI2132
I3
sI2133
I2
sI2134
I2
sI2135
I1
sI2136
I7
sI2137
I0
sI2138
I8
sI2139
I3
sI2140
I0
sI2141
I738
sI2142
I2
sI2143
I0
sI2144
I0
sI2145
I0
sI2146
I6
sI2147
I4
sI2148
I1
sI2149
I3
sI2150
I5
sI2151
I0
sI2152
I1
sI2153
I4
sI2154
I4
sI2155
I3
sI2156
I3
sI2157
I0
sI2158
I0
sI2159
I3
sI2160
I3
sI2161
I0
sI2162
I8
sI2163
I0
sI2164
I0
sI2165
I3
sI2166
I0
sI2167
I0
sI2168
I0
sI2169
I1
sI2170
I0
sI2171
I84
sI2172
I0
sI2173
I0
sI2174
I0
sI2175
I1
sI2176
I1
sI2177
I1
sI2178
I149
sI2179
I1
sI2180
I1
sI2181
I1
sI2182
I1
sI2183
I0
sI2184
I6
sI2185
I6
sI2186
I6
sI2187
I0
sI2188
I3
sI2189
I0
sI2190
I1
sI2191
I1
sI2192
I0
sI2193
I0
sI2194
I0
sI2195
I0
sI2196
I0
sI2197
I0
sI2198
I0
sI2199
I0
sI2200
I0
sI2201
I0
sI2202
I1
sI2203
I0
sI2204
I3
sI2205
I3
sI2206
I2
sI2207
I5
sI2208
I8
sI2209
I3
sI2210
I0
sI2211
I0
sI2212
I0
sI2213
I0
sI2214
I3
sI2215
I3
sI2216
I0
sI2217
I3
sI2218
I0
sI2219
I0
sI2220
I0
sI2221
I2
sI2222
I2
sI2223
I4
sI2224
I1
sI2225
I3
sI2226
I0
sI2227
I0
sI2228
I0
sI2229
I0
sI2230
I0
sI2231
I2
sI2232
I2
sI2233
I0
sI2234
I0
sI2235
I0
sI2236
I3
sI2237
I3
sI2238
I0
sI2239
I2
sI2240
I2
sI2241
I0
sI2242
I36
sI2243
I0
sI2244
I0
sI2245
I0
sI2246
I0
sI2247
I0
sI2248
I0
sI2249
I0
sI2250
I0
sI2251
I0
sI2252
I1
sI2253
I0
sI2254
I0
sI2255
I0
sI2256
I0
sI2257
I1
sI2258
I1
sI2259
I109
sI2260
I0
sI2261
I4
sI2262
I3
sI2263
I4
sI2264
I4
sI2265
I0
sI2266
I0
sI2267
I0
sI2268
I0
sI2269
I2
sI2270
I1
sI2271
I2
sI2272
I1
sI2273
I1
sI2274
I0
sI2275
I0
sI2276
I0
sI2277
I0
sI2278
I0
sI2279
I0
sI2280
I0
sI2281
I1
sI2282
I1
sI2283
I0
sI2284
I2
sI2285
I0
sI2286
I0
sI2287
I0
sI2288
I0
sI2289
I0
sI2290
I0
sI2291
I0
sI2292
I3
sI2293
I0
sI2294
I2
sI2295
I2
sI2296
I2
sI2297
I1
sI2298
I0
sI2299
I0
sI2300
I0
sI2301
I0
sI2302
I1
sI2303
I0
sI2304
I0
sI2305
I0
sI2306
I0
sI2307
I0
sI2308
I0
sI2309
I0
sI2310
I0
sI2311
I0
sI2312
I0
sI2313
I1
sI2314
I0
sI2315
I3
sI2316
I0
sI2317
I0
sI2318
I0
sI2319
I0
sI2320
I0
sI2321
I0
sI2322
I0
sI2323
I0
sI2324
I0
sI2325
I0
sI2326
I0
sI2327
I0
sI2328
I0
sI2329
I3
sI2330
I3
sI2331
I0
sI2332
I0
sI2333
I0
sI2334
I0
sI2335
I0
sI2336
I0
sI2337
I0
sI2338
I0
sI2339
I0
sI2340
I0
sI2341
I0
sI2342
I0
sI2343
I0
sI2344
I0
sI2345
I0
sI2346
I0
sI2347
I0
sI2348
I0
sI2349
I0
sI2350
I0
sI2351
I0
sI2352
I1
sI2353
I0
sI2354
I0
sI2355
I0
sI2356
I0
sI2357
I0
sI2358
I0
sI2359
I1
sI2360
I0
sI2361
I0
sI2362
I0
sI2363
I0
sI2364
I0
sI2365
I0
sI2366
I0
sI2367
I0
sI2368
I0
sI2369
I0
sI2370
I0
sI2371
I0
sI2372
I0
sI2373
I1
sI2374
I0
sI2375
I0
sI2376
I0
sI2377
I0
sI2378
I0
sI2379
I0
sI2380
I0
sI2381
I0
sI2382
I0
sI2383
I0
sI2384
I0
sI2385
I0
sI2386
I0
sI2387
I1
sI2388
I0
sI2389
I0
sI2390
I0
sI2391
I0
sI2392
I2
sI2393
I1
sI2394
I0
sI2395
I0
sI2396
I0
sI2397
I1
sI2398
I0
sI2399
I0
sI2400
I1
sI2401
I1
sI2402
I1
sI2403
I0
sI2404
I1
sI2405
I1
sI2406
I0
sI2407
I0
sI2408
I0
sI2409
I0
sI2410
I0
sI2411
I0
sI2412
I0
sI2413
I0
sI2414
I0
sI2415
I0
sI2416
I0
sI2417
I8
sI2418
I1
sI2419
I193
sI2420
I2
sI2421
I0
sI2422
I0
sI2423
I1
sI2424
I1
sI2425
I2
sI2426
I2
sI2427
I2
sI2428
I2
sI2429
I0
sI2430
I1
sI2431
I0
sI2432
I6
sI2433
I1
sI2434
I1
sI2435
I0
sI2436
I1
sI2437
I0
sI2438
I0
sI2439
I1
sI2440
I1
sI2441
I0
sI2442
I1
sI2443
I0
sI2444
I0
sI2445
I0
sI2446
I0
sI2447
I0
sI2448
I0
sI2449
I2
sI2450
I0
sI2451
I0
sI2452
I0
sI2453
I0
sI2454
I0
sI2455
I0
sI2456
I1
sI2457
I106
sI2458
I0
sI2459
I0
sI2460
I1
sI2461
I2
sI2462
I2
sI2463
I0
sI2464
I0
sI2465
I0
sI2466
I119
sI2467
I0
sI2468
I0
sI2469
I0
sI2470
I0
sI2471
I0
sI2472
I0
sI2473
I0
sI2474
I0
sI2475
I1
sI2476
I1
sI2477
I0
sI2478
I1
sI2479
I0
sI2480
I0
sI2481
I0
sI2482
I2
sI2483
I0
sI2484
I1
sI2485
I0
sI2486
I0
sI2487
I0
sI2488
I0
sI2489
I2
sI2490
I2
sI2491
I0
sI2492
I1
sI2493
I0
sI2494
I1
sI2495
I1
sI2496
I0
sI2497
I1
sI2498
I1
sI2499
I1
sI2500
I1
sI2501
I0
sI2502
I0
sI2503
I0
sI2504
I0
sI2505
I2
sI2506
I0
sI2507
I369
sI2508
I4
sI2509
I1
sI2510
I2
sI2511
I2
sI2512
I0
sI2513
I411
sI2514
I6
sI2515
I0
sI2516
I0
sI2517
I1
sI2518
I1
sI2519
I1
sI2520
I1
sI2521
I1
sI2522
I0
sI2523
I0
sI2524
I0
sI2525
I0
sI2526
I0
sI2527
I0
sI2528
I0
sI2529
I0
sI2530
I0
sI2531
I0
sI2532
I0
sI2533
I0
sI2534
I0
sI2535
I0
sI2536
I0
sI2537
I1
sI2538
I1
sI2539
I0
sI2540
I0
sI2541
I0
sI2542
I0
sI2543
I0
sI2544
I0
sI2545
I0
sI2546
I0
sI2547
I0
sI2548
I0
sI2549
I0
sI2550
I0
sI2551
I1
sI2552
I0
sI2553
I0
sI2554
I0
sI2555
I0
sI2556
I0
sI2557
I5
sI2558
I0
sI2559
I0
sI2560
I0
sI2561
I0
sI2562
I0
sI2563
I0
sI2564
I0
sI2565
I0
sI2566
I0
sI2567
I0
sI2568
I0
sI2569
I0
sI2570
I0
sI2571
I0
sI2572
I0
sI2573
I0
sI2574
I0
sI2575
I0
sI2576
I0
sI2577
I0
sI2578
I0
sI2579
I0
sI2580
I0
sI2581
I0
sI2582
I1
sI2583
I1
sI2584
I0
sI2585
I0
sI2586
I0
sI2587
I0
sI2588
I0
sI2589
I1
sI2590
I1
sI2591
I0
sI2592
I0
sI2593
I0
sI2594
I0
sI2595
I0
sI2596
I0
sI2597
I0
sI2598
I0
sI2599
I0
sI2600
I0
sI2601
I0
sI2602
I0
sI2603
I0
sI2604
I0
sI2605
I0
sI2606
I0
sI2607
I0
sI2608
I0
sI2609
I0
sI2610
I0
sI2611
I0
sI2612
I0
sI2613
I0
sI2614
I0
sI2615
I0
sI2616
I0
sI2617
I34
sI2618
I1
sI2619
I0
sI2620
I0
sI2621
I0
sI2622
I0
sI2623
I0
sI2624
I0
sI2625
I0
sI2626
I0
sI2627
I0
sI2628
I0
sI2629
I0
sI2630
I0
sI2631
I1
sI2632
I1
sI2633
I1
sI2634
I0
sI2635
I0
sI2636
I0
sI2637
I2
sI2638
I0
sI2639
I0
sI2640
I0
sI2641
I0
sI2642
I0
sI2643
I0
sI2644
I0
sI2645
I0
sI2646
I0
sI2647
I1
sI2648
I0
sI2649
I0
sI2650
I0
sI2651
I0
sI2652
I0
sI2653
I0
sI2654
I0
sI2655
I0
sI2656
I1
sI2657
I0
sI2658
I0
sI2659
I0
sI2660
I0
sI2661
I0
sI2662
I0
sI2663
I0
sI2664
I0
sI2665
I0
sI2666
I1
sI2667
I1
sI2668
I0
sI2669
I0
sI2670
I0
sI2671
I0
sI2672
I0
sI2673
I0
sI2674
I0
sI2675
I0
sI2676
I0
sI2677
I0
sI2678
I0
sI2679
I0
sI2680
I0
sI2681
I0
sI2682
I0
sI2683
I0
sI2684
I0
sI2685
I0
sI2686
I0
sI2687
I0
sI2688
I0
sI2689
I0
sI2690
I3
sI2691
I0
sI2692
I0
sI2693
I0
sI2694
I0
sI2695
I0
sI2696
I0
sI2697
I0
sI2698
I0
sI2699
I0
sI2700
I0
sI2701
I0
sI2702
I0
sI2703
I0
sI2704
I0
sI2705
I0
sI2706
I0
sI2707
I51
sI2708
I2
sI2709
I0
sI2710
I0
sI2711
I0
sI2712
I0
sI2713
I0
sI2714
I0
sI2715
I0
sI2716
I0
sI2717
I0
sI2718
I0
sI2719
I0
sI2720
I0
sI2721
I0
sI2722
I0
sI2723
I0
sI2724
I0
sI2725
I0
sI2726
I0
sI2727
I0
sI2728
I0
sI2729
I1
sI2730
I0
sI2731
I0
sI2732
I0
sI2733
I1
sI2734
I1
sI2735
I1
sI2736
I1
sI2737
I1
sI2738
I0
sI2739
I0
sI2740
I0
sI2741
I0
sI2742
I0
sI2743
I0
sI2744
I0
sI2745
I0
sI2746
I0
sI2747
I0
sI2748
I0
sI2749
I0
sI2750
I0
sI2751
I0
sI2752
I0
sI2753
I0
sI2754
I0
sI2755
I0
sI2756
I0
sI2757
I0
sI2758
I0
sI2759
I0
sI2760
I0
sI2761
I1
sI2762
I0
sI2763
I0
sI2764
I0
sI2765
I0
sI2766
I0
sI2767
I0
sI2768
I1
sI2769
I1
sI2770
I8
sI2771
I1
sI2772
I0
sI2773
I0
sI2774
I0
sI2775
I0
sI2776
I0
sI2777
I0
sI2778
I0
sI2779
I0
sI2780
I0
sI2781
I0
sI2782
I0
sI2783
I0
sI2784
I0
sI2785
I0
sI2786
I0
sI2787
I0
sI2788
I0
sI2789
I0
sI2790
I0
sI2791
I0
sI2792
I0
sI2793
I3
sI2794
I0
sI2795
I0
sI2796
I0
sI2797
I0
sI2798
I0
sI2799
I1
sI2800
I0
sI2801
I0
sI2802
I0
sI2803
I1
sI2804
I1
sI2805
I0
sI2806
I0
sI2807
I0
sI2808
I0
sI2809
I0
sI2810
I0
sI2811
I0
sI2812
I0
sI2813
I0
sI2814
I0
sI2815
I0
sI2816
I0
sI2817
I0
sI2818
I0
sI2819
I0
sI2820
I0
sI2821
I0
sI2822
I0
sI2823
I0
sI2824
I0
sI2825
I0
sI2826
I0
sI2827
I0
sI2828
I0
sI2829
I0
sI2830
I0
sI2831
I6
sI2832
I0
sI2833
I2
sI2834
I2
sI2835
I0
sI2836
I0
sI2837
I0
sI2838
I0
sI2839
I0
sI2840
I0
sI2841
I0
sI2842
I0
sI2843
I0
sI2844
I0
sI2845
I0
sI2846
I0
sI2847
I0
sI2848
I0
sI2849
I0
sI2850
I0
sI2851
I0
sI2852
I0
sI2853
I0
sI2854
I0
sI2855
I0
sI2856
I0
sI2857
I0
sI2858
I0
sI2859
I0
sI2860
I0
sI2861
I0
sI2862
I0
sI2863
I1
sI2864
I1
sI2865
I0
sI2866
I0
sI2867
I0
sI2868
I0
sI2869
I0
sI2870
I0
sI2871
I0
sI2872
I0
sI2873
I0
sI2874
I0
sI2875
I0
sI2876
I4
sI2877
I0
sI2878
I0
sI2879
I0
sI2880
I0
sI2881
I0
sI2882
I0
sI2883
I0
sI2884
I0
sI2885
I0
sI2886
I0
sI2887
I0
sI2888
I0
sI2889
I1
sI2890
I1
sI2891
I0
sI2892
I0
sI2893
I0
sI2894
I0
sI2895
I0
sI2896
I0
sI2897
I1
sI2898
I1
sI2899
I1
sI2900
I1
sI2901
I0
sI2902
I0
sI2903
I1
sI2904
I0
sI2905
I1
sI2906
I0
sI2907
I0
sI2908
I0
sI2909
I0
sI2910
I0
sI2911
I1
sI2912
I0
sI2913
I0
sI2914
I0
sI2915
I0
sI2916
I0
sI2917
I0
sI2918
I0
sI2919
I1
sI2920
I5
sI2921
I0
sI2922
I2
sI2923
I0
sI2924
I0
sI2925
I0
sI2926
I0
sI2927
I0
sI2928
I0
sI2929
I0
sI2930
I0
sI2931
I0
sI2932
I0
sI2933
I0
sI2934
I0
sI2935
I0
sI2936
I0
sI2937
I0
sI2938
I0
sI2939
I0
sI2940
I0
sI2941
I0
sI2942
I1
sI2943
I0
sI2944
I0
sI2945
I0
sI2946
I0
sI2947
I19
sI2948
I1
sI2949
I3
sI2950
I3
sI2951
I2
sI2952
I0
sI2953
I0
sI2954
I3
sI2955
I0
sI2956
I1
sI2957
I0
sI2958
I0
sI2959
I3
sI2960
I1
sI2961
I1
sI2962
I361
sI2963
I2
sI2964
I2
sI2965
I0
sI2966
I0
sI2967
I0
sI2968
I0
sI2969
I23
sI2970
I2
sI2971
I0
sI2972
I0
sI2973
I0
sI2974
I0
sI2975
I0
sI2976
I0
sI2977
I0
sI2978
I0
sI2979
I0
sI2980
I0
sI2981
I0
sI2982
I1
sI2983
I14
sI2984
I1
sI2985
I0
sI2986
I0
sI2987
I0
sI2988
I1
sI2989
I0
sI2990
I0
sI2991
I0
sI2992
I0
sI2993
I0
sI2994
I1
sI2995
I1
sI2996
I0
sI2997
I1
sI2998
I1
sI2999
I12
sI3000
I2
sI3001
I0
sI3002
I0
sI3003
I0
sI3004
I0
sI3005
I0
sI3006
I0
sI3007
I348
sI3008
I6
sI3009
I4
sI3010
I4
sI3011
I1
sI3012
I1
sI3013
I1
sI3014
I4
sI3015
I0
sI3016
I0
sI3017
I0
sI3018
I0
sI3019
I0
sI3020
I8
sI3021
I3
sI3022
I2
sI3023
I0
sI3024
I2
sI3025
I5
sI3026
I0
sI3027
I0
sI3028
I0
sI3029
I0
sI3030
I0
sI3031
I2
sI3032
I1
sI3033
I0
sI3034
I14
sI3035
I2
sI3036
I2
sI3037
I2
sI3038
I2
sI3039
I2
sI3040
I2
sI3041
I2
sI3042
I2
sI3043
I2
sI3044
I2
sI3045
I2
sI3046
I0
sI3047
I0
sI3048
I2
sI3049
I2
sI3050
I0
sI3051
I0
sI3052
I0
sI3053
I0
sI3054
I1
sI3055
I0
sI3056
I1
sI3057
I0
sI3058
I0
sI3059
I0
sI3060
I0
sI3061
I0
sI3062
I0
sI3063
I0
sI3064
I0
sI3065
I0
sI3066
I0
sI3067
I0
sI3068
I1
sI3069
I1
sI3070
I0
sI3071
I0
sI3072
I0
sI3073
I0
sI3074
I0
sI3075
I0
sI3076
I0
sI3077
I0
sI3078
I0
sI3079
I0
sI3080
I0
sI3081
I0
sI3082
I0
sI3083
I0
sI3084
I0
sI3085
I0
sI3086
I1
sI3087
I0
sI3088
I0
sI3089
I0
sI3090
I0
sI3091
I1
sI3092
I1
sI3093
I0
sI3094
I53
sI3095
I0
sI3096
I0
sI3097
I1
sI3098
I0
sI3099
I0
sI3100
I0
sI3101
I0
sI3102
I0
sI3103
I2
sI3104
I0
sI3105
I0
sI3106
I1
sI3107
I1
sI3108
I0
sI3109
I0
sI3110
I0
sI3111
I0
sI3112
I1
sI3113
I0
sI3114
I0
sI3115
I0
sI3116
I0
sI3117
I0
sI3118
I0
sI3119
I0
sI3120
I0
sI3121
I0
sI3122
I0
sI3123
I0
sI3124
I0
sI3125
I0
sI3126
I1
sI3127
I1
sI3128
I1
sI3129
I0
sI3130
I2
sI3131
I0
sI3132
I0
sI3133
I0
sI3134
I1
sI3135
I1
sI3136
I1
sI3137
I0
sI3138
I0
sI3139
I0
sI3140
I0
sI3141
I0
sI3142
I0
sI3143
I1
sI3144
I0
sI3145
I0
sI3146
I0
sI3147
I0
sI3148
I0
sI3149
I0
sI3150
I0
sI3151
I0
sI3152
I0
sI3153
I0
sI3154
I0
sI3155
I0
sI3156
I0
sI3157
I0
sI3158
I0
sI3159
I0
sI3160
I2
sI3161
I1
sI3162
I0
sI3163
I0
sI3164
I0
sI3165
I0
sI3166
I0
sI3167
I0
sI3168
I0
sI3169
I0
sI3170
I0
sI3171
I0
sI3172
I0
sI3173
I0
sI3174
I1
sI3175
I0
sI3176
I0
sI3177
I0
sI3178
I0
sI3179
I0
sI3180
I0
sI3181
I1
sI3182
I0
sI3183
I0
sI3184
I0
sI3185
I0
sI3186
I0
sI3187
I1
sI3188
I0
sI3189
I0
sI3190
I0
sI3191
I0
sI3192
I0
sI3193
I0
sI3194
I0
sI3195
I0
sI3196
I0
sI3197
I0
sI3198
I0
sI3199
I0
sI3200
I2
sI3201
I0
sI3202
I0
sI3203
I0
sI3204
I0
sI3205
I0
sI3206
I0
sI3207
I0
sI3208
I0
sI3209
I0
sI3210
I0
sI3211
I0
sI3212
I0
sI3213
I0
sI3214
I0
sI3215
I0
sI3216
I0
sI3217
I0
sI3218
I0
sI3219
I4
sI3220
I0
sI3221
I0
sI3222
I0
sI3223
I0
sI3224
I1
sI3225
I0
sI3226
I0
sI3227
I0
sI3228
I0
sI3229
I0
sI3230
I2
sI3231
I0
sI3232
I0
sI3233
I0
sI3234
I0
sI3235
I0
sI3236
I0
sI3237
I0
sI3238
I0
sI3239
I0
sI3240
I0
sI3241
I1
sI3242
I1
sI3243
I0
sI3244
I0
sI3245
I0
sI3246
I0
sI3247
I0
sI3248
I0
sI3249
I0
sI3250
I0
sI3251
I0
sI3252
I6
sI3253
I0
sI3254
I0
sI3255
I0
sI3256
I0
sI3257
I0
sI3258
I0
sI3259
I1
sI3260
I0
sI3261
I0
sI3262
I0
sI3263
I0
sI3264
I0
sI3265
I0
sI3266
I0
sI3267
I0
sI3268
I3
sI3269
I0
sI3270
I1
sI3271
I1
sI3272
I0
sI3273
I0
sI3274
I0
sI3275
I0
sI3276
I0
sI3277
I0
sI3278
I0
sI3279
I0
sI3280
I0
sI3281
I0
sI3282
I0
sI3283
I0
sI3284
I0
sI3285
I0
sI3286
I0
sI3287
I0
sI3288
I0
sI3289
I0
sI3290
I0
sI3291
I0
sI3292
I4
sI3293
I0
sI3294
I0
sI3295
I0
sI3296
I0
sI3297
I0
sI3298
I0
sI3299
I0
sI3300
I0
sI3301
I0
sI3302
I0
sI3303
I0
sI3304
I0
sI3305
I0
sI3306
I0
sI3307
I0
sI3308
I0
sI3309
I0
sI3310
I0
sI3311
I0
sI3312
I0
sI3313
I0
sI3314
I0
sI3315
I0
sI3316
I0
sI3317
I0
sI3318
I0
sI3319
I0
sI3320
I0
sI3321
I0
sI3322
I0
sI3323
I2
sI3324
I0
sI3325
I0
sI3326
I0
sI3327
I1
sI3328
I0
sI3329
I0
sI3330
I0
sI3331
I0
sI3332
I0
sI3333
I0
sI3334
I0
sI3335
I0
sI3336
I0
sI3337
I0
sI3338
I0
sI3339
I0
sI3340
I0
sI3341
I0
sI3342
I0
sI3343
I0
sI3344
I0
sI3345
I0
sI3346
I0
sI3347
I0
sI3348
I0
sI3349
I1
sI3350
I1
sI3351
I0
sI3352
I0
sI3353
I2
sI3354
I7
sI3355
I0
sI3356
I1
sI3357
I79
sI3358
I2
sI3359
I2
sI3360
I0
sI3361
I1
sI3362
I8
sI3363
I0
sI3364
I2
sI3365
I0
sI3366
I1
sI3367
I0
sI3368
I0
sI3369
I0
sI3370
I1
sI3371
I0
sI3372
I0
sI3373
I0
sI3374
I0
sI3375
I0
sI3376
I0
sI3377
I1
sI3378
I0
sI3379
I0
sI3380
I0
sI3381
I0
sI3382
I0
sI3383
I0
sI3384
I1
sI3385
I0
sI3386
I0
sI3387
I0
sI3388
I1
sI3389
I0
sI3390
I1
sI3391
I0
sI3392
I0
sI3393
I0
sI3394
I0
sI3395
I0
sI3396
I0
sI3397
I1
sI3398
I0
sI3399
I0
sI3400
I0
sI3401
I0
sI3402
I0
sI3403
I0
sI3404
I1
sI3405
I1
sI3406
I0
sI3407
I0
sI3408
I0
sI3409
I0
sI3410
I0
sI3411
I0
sI3412
I1
sI3413
I1
sI3414
I0
sI3415
I0
sI3416
I0
sI3417
I0
sI3418
I0
sI3419
I0
sI3420
I0
sI3421
I0
sI3422
I0
sI3423
I0
sI3424
I0
sI3425
I0
sI3426
I0
sI3427
I0
sI3428
I0
sI3429
I0
sI3430
I0
sI3431
I0
sI3432
I0
sI3433
I0
sI3434
I0
sI3435
I0
sI3436
I0
sI3437
I0
sI3438
I0
sI3439
I0
sI3440
I0
sI3441
I0
sI3442
I0
sI3443
I0
sI3444
I0
sI3445
I0
sI3446
I2
sI3447
I2
sI3448
I0
sI3449
I0
sI3450
I0
sI3451
I0
sI3452
I0
sI3453
I0
sI3454
I0
sI3455
I0
sI3456
I0
sI3457
I0
sI3458
I0
sI3459
I0
sI3460
I0
sI3461
I0
sI3462
I0
sI3463
I0
sI3464
I0
sI3465
I0
sI3466
I0
sI3467
I0
sI3468
I0
sI3469
I0
sI3470
I0
sI3471
I0
sI3472
I0
sI3473
I0
sI3474
I0
sI3475
I0
sI3476
I0
sI3477
I0
sI3478
I9
sI3479
I0
sI3480
I0
sI3481
I0
sI3482
I1
sI3483
I0
sI3484
I15
sI3485
I0
sI3486
I4
sI3487
I1
sI3488
I1
sI3489
I0
sI3490
I0
sI3491
I0
sI3492
I0
sI3493
I0
sI3494
I0
sI3495
I0
sI3496
I1
sI3497
I1
sI3498
I0
sI3499
I0
sI3500
I0
sI3501
I0
sI3502
I0
sI3503
I0
sI3504
I0
sI3505
I1
sI3506
I1
sI3507
I0
sI3508
I0
sI3509
I0
sI3510
I0
sI3511
I0
sI3512
I2
sI3513
I2
sI3514
I0
sI3515
I0
sI3516
I0
sI3517
I0
sI3518
I0
sI3519
I0
sI3520
I140
sI3521
I0
sI3522
I0
sI3523
I0
sI3524
I2
sI3525
I2
sI3526
I0
sI3527
I0
sI3528
I0
sI3529
I0
sI3530
I0
sI3531
I0
sI3532
I2
sI3533
I2
sI3534
I0
sI3535
I0
sI3536
I0
sI3537
I0
sI3538
I0
sI3539
I0
sI3540
I0
sI3541
I0
sI3542
I0
sI3543
I0
sI3544
I1
sI3545
I1
sI3546
I0
sI3547
I0
sI3548
I0
sI3549
I0
sI3550
I0
sI3551
I0
sI3552
I0
sI3553
I0
sI3554
I0
sI3555
I0
sI3556
I1
sI3557
I1
sI3558
I20
sI3559
I0
sI3560
I0
sI3561
I0
sI3562
I0
sI3563
I0
sI3564
I0
sI3565
I30
sI3566
I1
sI3567
I0
sI3568
I0
sI3569
I0
sI3570
I1
sI3571
I0
sI3572
I0
sI3573
I0
sI3574
I0
sI3575
I0
sI3576
I0
sI3577
I0
sI3578
I0
sI3579
I0
sI3580
I2
sI3581
I2
sI3582
I0
sI3583
I0
sI3584
I0
sI3585
I1
sI3586
I0
sI3587
I0
sI3588
I0
sI3589
I0
sI3590
I0
sI3591
I0
sI3592
I0
sI3593
I0
sI3594
I1
sI3595
I0
sI3596
I0
sI3597
I0
sI3598
I0
sI3599
I0
sI3600
I0
sI3601
I0
sI3602
I0
sI3603
I0
sI3604
I0
sI3605
I1
sI3606
I3
sI3607
I0
sI3608
I0
sI3609
I0
sI3610
I0
sI3611
I0
sI3612
I0
sI3613
I0
sI3614
I0
sI3615
I0
sI3616
I0
sI3617
I0
sI3618
I0
sI3619
I0
sI3620
I0
sI3621
I0
sI3622
I1
sI3623
I0
sI3624
I0
sI3625
I0
sI3626
I0
sI3627
I0
sI3628
I0
sI3629
I0
sI3630
I0
sI3631
I0
sI3632
I0
sI3633
I0
sI3634
I0
sI3635
I0
sI3636
I0
sI3637
I0
sI3638
I0
sI3639
I0
sI3640
I0
sI3641
I0
sI3642
I0
sI3643
I1
sI3644
I0
sI3645
I0
sI3646
I0
sI3647
I0
sI3648
I0
sI3649
I0
sI3650
I0
sI3651
I0
sI3652
I0
sI3653
I0
sI3654
I0
sI3655
I0
sI3656
I0
sI3657
I0
sI3658
I0
sI3659
I0
sI3660
I0
sI3661
I0
sI3662
I0
sI3663
I0
sI3664
I1
sI3665
I0
sI3666
I0
sI3667
I0
sI3668
I0
sI3669
I0
sI3670
I0
sI3671
I1
sI3672
I0
sI3673
I0
sI3674
I0
sI3675
I0
sI3676
I0
sI3677
I0
sI3678
I0
sI3679
I0
sI3680
I0
sI3681
I0
sI3682
I0
sI3683
I0
sI3684
I0
sI3685
I0
sI3686
I0
sI3687
I0
sI3688
I0
sI3689
I0
sI3690
I0
sI3691
I0
sI3692
I0
sI3693
I0
sI3694
I0
sI3695
I0
sI3696
I0
sI3697
I0
sI3698
I0
sI3699
I0
sI3700
I0
sI3701
I0
sI3702
I0
sI3703
I0
sI3704
I1
sI3705
I1
sI3706
I0
sI3707
I0
sI3708
I0
sI3709
I0
sI3710
I0
sI3711
I0
sI3712
I0
sI3713
I0
sI3714
I0
sI3715
I0
sI3716
I0
sI3717
I0
sI3718
I1
sI3719
I1
sI3720
I1
sI3721
I1
sI3722
I0
sI3723
I1
sI3724
I0
sI3725
I0
sI3726
I0
sI3727
I1
sI3728
I1
sI3729
I0
sI3730
I0
sI3731
I1
sI3732
I0
sI3733
I0
sI3734
I0
sI3735
I0
sI3736
I0
sI3737
I1
sI3738
I0
sI3739
I0
sI3740
I0
sI3741
I0
sI3742
I0
sI3743
I0
sI3744
I0
sI3745
I1
sI3746
I0
sI3747
I0
sI3748
I0
sI3749
I1
sI3750
I11
sI3751
I0
sI3752
I0
sI3753
I0
sI3754
I0
sI3755
I0
sI3756
I0
sI3757
I1
sI3758
I1
sI3759
I0
sI3760
I0
sI3761
I2
sI3762
I0
sI3763
I0
sI3764
I0
sI3765
I0
sI3766
I0
sI3767
I0
sI3768
I0
sI3769
I0
sI3770
I0
sI3771
I0
sI3772
I0
sI3773
I0
sI3774
I0
sI3775
I0
sI3776
I0
sI3777
I1
sI3778
I0
sI3779
I0
sI3780
I0
sI3781
I0
sI3782
I1
sI3783
I0
sI3784
I1
sI3785
I0
sI3786
I0
sI3787
I0
sI3788
I1
sI3789
I0
sI3790
I0
sI3791
I0
sI3792
I0
sI3793
I0
sI3794
I0
sI3795
I0
sI3796
I0
sI3797
I0
sI3798
I0
sI3799
I73
sI3800
I0
sI3801
I0
sI3802
I0
sI3803
I0
sI3804
I0
sI3805
I0
sI3806
I0
sI3807
I0
sI3808
I0
sI3809
I0
sI3810
I0
sI3811
I0
sI3812
I0
sI3813
I1
sI3814
I0
sI3815
I0
sI3816
I0
sI3817
I0
sI3818
I0
sI3819
I0
sI3820
I0
sI3821
I0
sI3822
I0
sI3823
I0
sI3824
I0
sI3825
I0
sI3826
I0
sI3827
I0
sI3828
I0
sI3829
I0
sI3830
I0
sI3831
I0
sI3832
I0
sI3833
I0
sI3834
I0
sI3835
I0
sI3836
I0
sI3837
I0
sI3838
I0
sI3839
I0
sI3840
I0
sI3841
I0
sI3842
I0
sI3843
I0
sI3844
I0
sI3845
I0
sI3846
I0
sI3847
I0
sI3848
I0
sI3849
I0
sI3850
I0
sI3851
I0
sI3852
I1
sI3853
I0
sI3854
I0
sI3855
I0
sI3856
I0
sI3857
I0
sI3858
I0
sI3859
I0
sI3860
I0
sI3861
I0
sI3862
I0
sI3863
I0
sI3864
I0
sI3865
I0
sI3866
I0
sI3867
I0
sI3868
I0
sI3869
I0
sI3870
I0
sI3871
I0
sI3872
I0
sI3873
I0
sI3874
I0
sI3875
I0
sI3876
I0
sI3877
I0
sI3878
I0
sI3879
I0
sI3880
I0
sI3881
I0
sI3882
I0
sI3883
I0
sI3884
I0
sI3885
I0
sI3886
I0
sI3887
I0
sI3888
I0
sI3889
I0
sI3890
I0
sI3891
I0
sI3892
I0
sI3893
I0
sI3894
I0
sI3895
I0
sI3896
I0
sI3897
I0
sI3898
I0
sI3899
I0
sI3900
I0
sI3901
I0
sI3902
I0
sI3903
I0
sI3904
I0
sI3905
I0
sI3906
I0
sI3907
I0
sI3908
I0
sI3909
I0
sI3910
I0
sI3911
I0
sI3912
I0
sI3913
I0
sI3914
I0
sI3915
I0
sI3916
I0
sI3917
I0
sI3918
I0
sI3919
I0
sI3920
I0
sI3921
I0
sI3922
I0
sI3923
I0
sI3924
I0
sI3925
I0
sI3926
I0
sI3927
I0
sI3928
I0
sI3929
I0
sI3930
I0
sI3931
I0
sI3932
I0
sI3933
I0
sI3934
I0
sI3935
I0
sI3936
I0
sI3937
I0
sI3938
I0
sI3939
I0
sI3940
I0
sI3941
I0
sI3942
I0
sI3943
I0
sI3944
I3
sI3945
I1
sI3946
I1
sI3947
I1
sI3948
I0
sI3949
I0
sI3950
I0
sI3951
I0
sI3952
I0
sI3953
I0
sI3954
I0
sI3955
I0
sI3956
I0
sI3957
I0
sI3958
I0
sI3959
I0
sI3960
I0
sI3961
I0
sI3962
I0
sI3963
I0
sI3964
I0
sI3965
I0
sI3966
I0
sI3967
I0
sI3968
I0
sI3969
I0
sI3970
I0
sI3971
I0
sI3972
I0
sI3973
I0
sI3974
I0
sI3975
I0
sI3976
I0
sI3977
I0
sI3978
I0
sI3979
I0
sI3980
I0
sI3981
I0
sI3982
I0
sI3983
I0
sI3984
I0
sI3985
I0
sI3986
I0
sI3987
I0
sI3988
I0
sI3989
I0
sI3990
I0
sI3991
I0
sI3992
I0
sI3993
I0
sI3994
I0
sI3995
I0
sI3996
I0
sI3997
I0
sI3998
I0
sI3999
I0
sI4000
I0
sI4001
I0
sI4002
I0
sI4003
I0
sI4004
I0
sI4005
I0
sI4006
I0
sI4007
I0
sI4008
I0
sI4009
I0
sI4010
I0
sI4011
I0
sI4012
I0
sI4013
I0
sI4014
I0
sI4015
I0
sI4016
I0
sI4017
I0
sI4018
I0
sI4019
I0
sI4020
I0
sI4021
I0
sI4022
I0
sI4023
I0
sI4024
I0
sI4025
I0
sI4026
I0
sI4027
I0
sI4028
I0
sI4029
I0
sI4030
I0
sI4031
I0
sI4032
I0
sI4033
I0
sI4034
I0
sI4035
I0
sI4036
I0
sI4037
I0
sI4038
I0
sI4039
I0
sI4040
I0
sI4041
I0
sI4042
I0
sI4043
I0
sI4044
I0
sI4045
I0
sI4046
I0
sI4047
I0
sI4048
I0
sI4049
I0
sI4050
I0
sI4051
I0
sI4052
I0
sI4053
I0
sI4054
I0
sI4055
I0
sI4056
I0
sI4057
I0
sI4058
I0
sI4059
I0
sI4060
I4
sI4061
I0
sI4062
I0
sI4063
I0
sI4064
I0
sI4065
I0
sI4066
I0
sI4067
I0
sI4068
I0
sI4069
I0
sI4070
I0
sI4071
I0
sI4072
I0
sI4073
I0
sI4074
I0
sI4075
I0
sI4076
I0
sI4077
I0
sI4078
I0
sI4079
I3
sI4080
I3
sI4081
I0
sI4082
I0
sI4083
I0
sI4084
I1
sI4085
I1
sI4086
I1
sI4087
I1
sI4088
I0
sI4089
I0
sI4090
I1
sI4091
I1
sI4092
I1
sI4093
I0
sI4094
I1
sI4095
I1
sI4096
I0
sI4097
I1
sI4098
I1
sI4099
I0
sI4100
I0
sI4101
I0
sI4102
I0
sI4103
I0
sI4104
I0
sI4105
I0
sI4106
I0
sI4107
I0
sI4108
I0
sI4109
I0
sI4110
I0
sI4111
I0
sI4112
I0
sI4113
I1
sI4114
I0
sI4115
I0
sI4116
I0
sI4117
I0
sI4118
I0
sI4119
I0
sI4120
I0
sI4121
I0
sI4122
I0
sI4123
I0
sI4124
I0
sI4125
I0
sI4126
I0
sI4127
I0
sI4128
I0
sI4129
I0
sI4130
I0
sI4131
I0
sI4132
I0
sI4133
I0
sI4134
I0
sI4135
I0
sI4136
I0
sI4137
I0
sI4138
I0
sI4139
I0
sI4140
I0
sI4141
I0
sI4142
I0
sI4143
I0
sI4144
I0
sI4145
I0
sI4146
I0
sI4147
I0
sI4148
I0
sI4149
I0
sI4150
I0
sI4151
I0
sI4152
I0
sI4153
I0
sI4154
I0
sI4155
I257
sI4156
I0
sI4157
I0
sI4158
I0
sI4159
I0
sI4160
I0
sI4161
I0
sI4162
I0
sI4163
I0
sI4164
I0
sI4165
I0
sI4166
I0
sI4167
I0
sI4168
I0
sI4169
I0
sI4170
I0
sI4171
I0
sI4172
I0
sI4173
I0
sI4174
I0
sI4175
I0
sI4176
I0
sI4177
I0
sI4178
I0
sI4179
I0
sI4180
I0
sI4181
I0
sI4182
I0
sI4183
I0
sI4184
I0
sI4185
I0
sI4186
I0
sI4187
I0
sI4188
I0
sI4189
I0
sI4190
I0
sI4191
I0
sI4192
I0
sI4193
I0
sI4194
I0
sI4195
I0
sI4196
I0
sI4197
I0
sI4198
I0
sI4199
I0
sI4200
I0
sI4201
I0
sI4202
I0
sI4203
I0
sI4204
I0
sI4205
I0
sI4206
I0
sI4207
I0
sI4208
I0
sI4209
I0
sI4210
I0
sI4211
I0
sI4212
I0
sI4213
I0
sI4214
I0
sI4215
I0
sI4216
I0
sI4217
I0
sI4218
I0
sI4219
I0
sI4220
I57
sI4221
I0
sI4222
I0
sI4223
I0
sI4224
I0
sI4225
I0
sI4226
I0
sI4227
I0
sI4228
I0
sI4229
I0
sI4230
I0
sI4231
I1
sI4232
I0
sI4233
I139
sI4234
I0
sI4235
I0
sI4236
I0
sI4237
I0
sI4238
I0
sI4239
I0
sI4240
I0
sI4241
I0
sI4242
I0
sI4243
I0
sI4244
I0
sI4245
I0
sI4246
I0
sI4247
I0
sI4248
I0
sI4249
I0
sI4250
I0
sI4251
I0
sI4252
I0
sI4253
I0
sI4254
I0
sI4255
I0
sI4256
I0
sI4257
I0
sI4258
I0
sI4259
I0
sI4260
I0
sI4261
I0
sI4262
I0
sI4263
I0
sI4264
I0
sI4265
I0
sI4266
I0
sI4267
I0
sI4268
I0
sI4269
I0
sI4270
I0
sI4271
I0
sI4272
I0
sI4273
I0
sI4274
I0
sI4275
I0
sI4276
I0
sI4277
I1
sI4278
I0
sI4279
I0
sI4280
I0
sI4281
I0
sI4282
I0
sI4283
I0
sI4284
I0
sI4285
I0
sI4286
I0
sI4287
I0
sI4288
I5
sI4289
I0
sI4290
I0
sI4291
I0
sI4292
I0
sI4293
I0
sI4294
I0
sI4295
I0
sI4296
I0
sI4297
I0
sI4298
I0
sI4299
I0
sI4300
I0
sI4301
I0
sI4302
I0
sI4303
I0
sI4304
I0
sI4305
I0
sI4306
I0
sI4307
I0
sI4308
I0
sI4309
I0
sI4310
I0
sI4311
I0
sI4312
I0
sI4313
I2
sI4314
I0
sI4315
I0
sI4316
I0
sI4317
I0
sI4318
I0
sI4319
I0
sI4320
I0
sI4321
I0
sI4322
I187
sI4323
I0
sI4324
I0
sI4325
I0
sI4326
I0
sI4327
I0
sI4328
I0
sI4329
I0
sI4330
I0
sI4331
I0
sI4332
I0
sI4333
I0
sI4334
I0
sI4335
I0
sI4336
I0
sI4337
I0
sI4338
I0
sI4339
I0
sI4340
I0
sI4341
I0
sI4342
I0
sI4343
I0
sI4344
I0
sI4345
I0
sI4346
I0
sI4347
I0
sI4348
I0
sI4349
I0
sI4350
I0
sI4351
I0
sI4352
I0
sI4353
I0
sI4354
I0
sI4355
I0
sI4356
I0
sI4357
I0
sI4358
I0
sI4359
I0
sI4360
I0
sI4361
I0
sI4362
I0
sI4363
I0
sI4364
I0
sI4365
I0
sI4366
I0
sI4367
I0
sI4368
I0
sI4369
I0
sI4370
I0
sI4371
I0
sI4372
I0
sI4373
I0
sI4374
I0
sI4375
I0
sI4376
I0
sI4377
I0
sI4378
I0
sI4379
I0
sI4380
I0
sI4381
I0
sI4382
I0
sI4383
I0
sI4384
I0
sI4385
I0
sI4386
I0
sI4387
I0
sI4388
I0
sI4389
I0
sI4390
I0
sI4391
I0
sI4392
I0
sI4393
I0
sI4394
I0
sI4395
I0
sI4396
I0
sI4397
I0
sI4398
I0
sI4399
I0
sI4400
I0
sI4401
I0
sI4402
I7
sI4403
I0
sI4404
I0
sI4405
I0
sI4406
I0
sI4407
I0
sI4408
I0
sI4409
I0
sI4410
I0
sI4411
I0
sI4412
I0
sI4413
I0
sI4414
I17
sI4415
I0
sI4416
I0
sI4417
I0
sI4418
I0
sI4419
I20
sI4420
I6
sI4421
I0
sI4422
I0
sI4423
I0
sI4424
I0
sI4425
I0
sI4426
I0
sI4427
I0
sI4428
I0
sI4429
I0
sI4430
I0
sI4431
I0
sI4432
I3
sI4433
I0
sI4434
I0
sI4435
I0
sI4436
I0
sI4437
I0
sI4438
I0
sI4439
I0
sI4440
I2
s.